target datalayout = "e-m:e-p270:32:32-p271:32:32-p272:64:64-i64:64-i128:128-f80:128-n8:16:32:64-S128"
target triple = "x86_64-pc-linux-gnu"

%struct.ImGuiStorage = type { %struct.ImVector.4 }
%struct.ImVector.4 = type { i32, i32, ptr }
%struct.ImGuiStoragePair = type { i32, %union.anon.35 }
%union.anon.35 = type { ptr }

; Function Attrs: mustprogress nounwind uwtable
define dso_local noundef ptr @_Z12ImLowerBoundP16ImGuiStoragePairS0_j(ptr noundef %0, ptr noundef %1, i32 noundef %2) #1 {
  %4 = alloca ptr, align 8
  %5 = alloca ptr, align 8
  %6 = alloca i32, align 4
  %7 = alloca ptr, align 8
  %8 = alloca i64, align 8
  %9 = alloca i64, align 8
  %10 = alloca ptr, align 8
  store ptr %0, ptr %4, align 8, !tbaa !323
  store ptr %1, ptr %5, align 8, !tbaa !323
  store i32 %2, ptr %6, align 4, !tbaa !117
  call void @llvm.lifetime.start.p0(i64 8, ptr %7) #16
  %11 = load ptr, ptr %4, align 8, !tbaa !323
  store ptr %11, ptr %7, align 8, !tbaa !323
  call void @llvm.lifetime.start.p0(i64 8, ptr %8) #16
  %12 = load ptr, ptr %5, align 8, !tbaa !323
  %13 = load ptr, ptr %7, align 8, !tbaa !323
  %14 = ptrtoint ptr %12 to i64
  %15 = ptrtoint ptr %13 to i64
  %16 = sub i64 %14, %15
  %17 = sdiv exact i64 %16, 16
  store i64 %17, ptr %8, align 8, !tbaa !290
  br label %18

18:                                               ; preds = %42, %3
  %19 = load i64, ptr %8, align 8, !tbaa !290
  %20 = icmp ugt i64 %19, 0
  br i1 %20, label %22, label %21

21:                                               ; preds = %18
  call void @llvm.lifetime.end.p0(i64 8, ptr %8) #16
  br label %43

22:                                               ; preds = %18
  call void @llvm.lifetime.start.p0(i64 8, ptr %9) #16
  %23 = load i64, ptr %8, align 8, !tbaa !290
  %24 = lshr i64 %23, 1
  store i64 %24, ptr %9, align 8, !tbaa !290
  call void @llvm.lifetime.start.p0(i64 8, ptr %10) #16
  %25 = load ptr, ptr %7, align 8, !tbaa !323
  %26 = load i64, ptr %9, align 8, !tbaa !290
  %27 = getelementptr inbounds nuw %struct.ImGuiStoragePair, ptr %25, i64 %26
  store ptr %27, ptr %10, align 8, !tbaa !323
  %28 = load ptr, ptr %10, align 8, !tbaa !323
  %29 = getelementptr inbounds nuw %struct.ImGuiStoragePair, ptr %28, i32 0, i32 0
  %30 = load i32, ptr %29, align 8, !tbaa !324
  %31 = load i32, ptr %6, align 4, !tbaa !117
  %32 = icmp ult i32 %30, %31
  br i1 %32, label %33, label %40

33:                                               ; preds = %22
  %34 = load ptr, ptr %10, align 8, !tbaa !323
  %35 = getelementptr inbounds nuw %struct.ImGuiStoragePair, ptr %34, i32 1
  store ptr %35, ptr %10, align 8, !tbaa !323
  store ptr %35, ptr %7, align 8, !tbaa !323
  %36 = load i64, ptr %9, align 8, !tbaa !290
  %37 = add i64 %36, 1
  %38 = load i64, ptr %8, align 8, !tbaa !290
  %39 = sub i64 %38, %37
  store i64 %39, ptr %8, align 8, !tbaa !290
  br label %42

40:                                               ; preds = %22
  %41 = load i64, ptr %9, align 8, !tbaa !290
  store i64 %41, ptr %8, align 8, !tbaa !290
  br label %42

42:                                               ; preds = %40, %33
  call void @llvm.lifetime.end.p0(i64 8, ptr %10) #16
  call void @llvm.lifetime.end.p0(i64 8, ptr %9) #16
  br label %18, !llvm.loop !326

43:                                               ; preds = %21
  %44 = load ptr, ptr %7, align 8, !tbaa !323
  call void @llvm.lifetime.end.p0(i64 8, ptr %7) #16
  ret ptr %44
}

; Function Attrs: mustprogress nounwind uwtable
define dso_local noundef i32 @_ZNK12ImGuiStorage6GetIntEji(ptr noundef nonnull align 8 dereferenceable(16) %0, i32 noundef %1, i32 noundef %2) #1 align 2 {
  %4 = alloca i32, align 4
  %5 = alloca ptr, align 8
  %6 = alloca i32, align 4
  %7 = alloca i32, align 4
  %8 = alloca ptr, align 8
  %9 = alloca i32, align 4
  store ptr %0, ptr %5, align 8, !tbaa !327
  store i32 %1, ptr %6, align 4, !tbaa !117
  store i32 %2, ptr %7, align 4, !tbaa !117
  %10 = load ptr, ptr %5, align 8
  call void @llvm.lifetime.start.p0(i64 8, ptr %8) #16
  %11 = getelementptr inbounds nuw %struct.ImGuiStorage, ptr %10, i32 0, i32 0
  %12 = getelementptr inbounds nuw %struct.ImVector.4, ptr %11, i32 0, i32 2
  %13 = load ptr, ptr %12, align 8, !tbaa !329
  %14 = getelementptr inbounds nuw %struct.ImGuiStorage, ptr %10, i32 0, i32 0
  %15 = getelementptr inbounds nuw %struct.ImVector.4, ptr %14, i32 0, i32 2
  %16 = load ptr, ptr %15, align 8, !tbaa !329
  %17 = getelementptr inbounds nuw %struct.ImGuiStorage, ptr %10, i32 0, i32 0
  %18 = getelementptr inbounds nuw %struct.ImVector.4, ptr %17, i32 0, i32 0
  %19 = load i32, ptr %18, align 8, !tbaa !330
  %20 = sext i32 %19 to i64
  %21 = getelementptr inbounds %struct.ImGuiStoragePair, ptr %16, i64 %20
  %22 = load i32, ptr %6, align 4, !tbaa !117
  %23 = call noundef ptr @_Z12ImLowerBoundP16ImGuiStoragePairS0_j(ptr noundef %13, ptr noundef %21, i32 noundef %22)
  store ptr %23, ptr %8, align 8, !tbaa !323
  %24 = load ptr, ptr %8, align 8, !tbaa !323
  %25 = getelementptr inbounds nuw %struct.ImGuiStorage, ptr %10, i32 0, i32 0
  %26 = getelementptr inbounds nuw %struct.ImVector.4, ptr %25, i32 0, i32 2
  %27 = load ptr, ptr %26, align 8, !tbaa !329
  %28 = getelementptr inbounds nuw %struct.ImGuiStorage, ptr %10, i32 0, i32 0
  %29 = getelementptr inbounds nuw %struct.ImVector.4, ptr %28, i32 0, i32 0
  %30 = load i32, ptr %29, align 8, !tbaa !330
  %31 = sext i32 %30 to i64
  %32 = getelementptr inbounds %struct.ImGuiStoragePair, ptr %27, i64 %31
  %33 = icmp eq ptr %24, %32
  br i1 %33, label %40, label %34

34:                                               ; preds = %3
  %35 = load ptr, ptr %8, align 8, !tbaa !323
  %36 = getelementptr inbounds nuw %struct.ImGuiStoragePair, ptr %35, i32 0, i32 0
  %37 = load i32, ptr %36, align 8, !tbaa !324
  %38 = load i32, ptr %6, align 4, !tbaa !117
  %39 = icmp ne i32 %37, %38
  br i1 %39, label %40, label %42

40:                                               ; preds = %34, %3
  %41 = load i32, ptr %7, align 4, !tbaa !117
  store i32 %41, ptr %4, align 4
  store i32 1, ptr %9, align 4
  br label %46

42:                                               ; preds = %34
  %43 = load ptr, ptr %8, align 8, !tbaa !323
  %44 = getelementptr inbounds nuw %struct.ImGuiStoragePair, ptr %43, i32 0, i32 1
  %45 = load i32, ptr %44, align 8, !tbaa !245
  store i32 %45, ptr %4, align 4
  store i32 1, ptr %9, align 4
  br label %46

46:                                               ; preds = %42, %40
  call void @llvm.lifetime.end.p0(i64 8, ptr %8) #16
  %47 = load i32, ptr %4, align 4
  ret i32 %47
}

; Function Attrs: mustprogress nounwind uwtable
define dso_local noundef zeroext i1 @_ZNK12ImGuiStorage7GetBoolEjb(ptr noundef nonnull align 8 dereferenceable(16) %0, i32 noundef %1, i1 noundef zeroext %2) #1 align 2 {
  %4 = alloca ptr, align 8
  %5 = alloca i32, align 4
  %6 = alloca i8, align 1
  store ptr %0, ptr %4, align 8, !tbaa !327
  store i32 %1, ptr %5, align 4, !tbaa !117
  %7 = zext i1 %2 to i8
  store i8 %7, ptr %6, align 1, !tbaa !268
  %8 = load ptr, ptr %4, align 8
  %9 = load i32, ptr %5, align 4, !tbaa !117
  %10 = load i8, ptr %6, align 1, !tbaa !268, !range !134, !noundef !135
  %11 = trunc i8 %10 to i1
  %12 = select i1 %11, i32 1, i32 0
  %13 = call noundef i32 @_ZNK12ImGuiStorage6GetIntEji(ptr noundef nonnull align 8 dereferenceable(16) %8, i32 noundef %9, i32 noundef %12)
  %14 = icmp ne i32 %13, 0
  ret i1 %14
}