; Function Attrs: mustprogress nofree norecurse nosync nounwind willreturn memory(read, inaccessiblemem: none) uwtable
define dso_local noundef zeroext i1 @_ZNK12ImGuiStorage7GetBoolEjb(ptr noundef nonnull readonly align 8 captures(none) dereferenceable(16) %0, i32 noundef %1, i1 noundef zeroext %2) local_unnamed_addr #31 align 2 {
  %4 = getelementptr inbounds nuw i8, ptr %0, i64 8
  %5 = load ptr, ptr %4, align 8, !tbaa !275
  %6 = load i32, ptr %0, align 8, !tbaa !274
  %7 = sext i32 %6 to i64
  %8 = getelementptr inbounds %struct.ImGuiStoragePair, ptr %5, i64 %7
  %.not15.i.i = icmp eq i32 %6, 0
  br i1 %.not15.i.i, label %_Z12ImLowerBoundP16ImGuiStoragePairS0_j.exit.i, label %.lr.ph.i.i

.lr.ph.i.i:                                       ; preds = %3, %.lr.ph.i.i
  %.017.i.i = phi ptr [ %.1.i.i, %.lr.ph.i.i ], [ %5, %3 ]
  %.01316.i.i = phi i64 [ %.114.i.i, %.lr.ph.i.i ], [ %7, %3 ]
  %9 = lshr i64 %.01316.i.i, 1
  %10 = getelementptr inbounds nuw %struct.ImGuiStoragePair, ptr %.017.i.i, i64 %9
  %11 = load i32, ptr %10, align 8, !tbaa !271
  %12 = icmp ult i32 %11, %1
  %13 = getelementptr inbounds nuw i8, ptr %10, i64 16
  %.neg.i.i = xor i64 %9, -1
  %14 = add i64 %.01316.i.i, %.neg.i.i
  %.114.i.i = select i1 %12, i64 %14, i64 %9
  %.1.i.i = select i1 %12, ptr %13, ptr %.017.i.i
  %.not.i.i = icmp eq i64 %.114.i.i, 0
  br i1 %.not.i.i, label %_Z12ImLowerBoundP16ImGuiStoragePairS0_j.exit.i, label %.lr.ph.i.i, !llvm.loop !273

_Z12ImLowerBoundP16ImGuiStoragePairS0_j.exit.i:   ; preds = %.lr.ph.i.i, %3
  %.0.lcssa.i.i = phi ptr [ %5, %3 ], [ %.1.i.i, %.lr.ph.i.i ]
  %15 = icmp eq ptr %.0.lcssa.i.i, %8
  br i1 %15, label %_ZNK12ImGuiStorage6GetIntEji.exit, label %16

16:                                               ; preds = %_Z12ImLowerBoundP16ImGuiStoragePairS0_j.exit.i
  %17 = load i32, ptr %.0.lcssa.i.i, align 8, !tbaa !271
  %.not.i = icmp eq i32 %17, %1
  br i1 %.not.i, label %18, label %_ZNK12ImGuiStorage6GetIntEji.exit

18:                                               ; preds = %16
  %19 = getelementptr inbounds nuw i8, ptr %.0.lcssa.i.i, i64 8
  %20 = load i32, ptr %19, align 8, !tbaa !206
  %21 = icmp ne i32 %20, 0
  br label %_ZNK12ImGuiStorage6GetIntEji.exit

_ZNK12ImGuiStorage6GetIntEji.exit:                ; preds = %_Z12ImLowerBoundP16ImGuiStoragePairS0_j.exit.i, %16, %18
  %.0.i = phi i1 [ %21, %18 ], [ %2, %16 ], [ %2, %_Z12ImLowerBoundP16ImGuiStoragePairS0_j.exit.i ]
  ret i1 %.0.i
}